; Function Attrs: nofree norecurse nosync nounwind memory(read, inaccessiblemem: none) uwtable
define range(i32 0, -2147483648) i32 @Fxch_ManComputeLevelCube(ptr noundef readonly captures(none) %0, ptr noundef readonly captures(none) %1) local_unnamed_addr #8 {
  %3 = getelementptr i8, ptr %1, i64 4
  %.val10 = load i32, ptr %3, align 4, !tbaa !26
  %4 = icmp sgt i32 %.val10, 1
  br i1 %4, label %.lr.ph, label %.critedge

.lr.ph:                                           ; preds = %2
  %5 = getelementptr i8, ptr %1, i64 8
  %.val9 = load ptr, ptr %5, align 8, !tbaa !25
  %6 = getelementptr inbounds nuw i8, ptr %0, i64 80
  %7 = load ptr, ptr %6, align 8, !tbaa !57
  %8 = getelementptr i8, ptr %7, i64 8
  %.val = load ptr, ptr %8, align 8, !tbaa !25
  %wide.trip.count = zext nneg i32 %.val10 to i64
  br label %9

9:                                                ; preds = %.lr.ph, %9
  %indvars.iv = phi i64 [ 1, %.lr.ph ], [ %indvars.iv.next, %9 ]
  %.012 = phi i32 [ 0, %.lr.ph ], [ %16, %9 ]
  %10 = getelementptr inbounds nuw i32, ptr %.val9, i64 %indvars.iv
  %11 = load i32, ptr %10, align 4, !tbaa !60
  %12 = ashr i32 %11, 1
  %13 = sext i32 %12 to i64
  %14 = getelementptr inbounds i32, ptr %.val, i64 %13
  %15 = load i32, ptr %14, align 4, !tbaa !60
  %16 = tail call noundef i32 @llvm.smax.i32(i32 %.012, i32 %15)
  %indvars.iv.next = add nuw nsw i64 %indvars.iv, 1
  %exitcond.not = icmp eq i64 %indvars.iv.next, %wide.trip.count
  br i1 %exitcond.not, label %.critedge, label %9, !llvm.loop !93

.critedge:                                        ; preds = %9, %2
  %.0.lcssa = phi i32 [ 0, %2 ], [ %16, %9 ]
  ret i32 %.0.lcssa
}